target datalayout = "e-m:e-p270:32:32-p271:32:32-p272:64:64-i64:64-i128:128-f80:128-n8:16:32:64-S128"
target triple = "x86_64-pc-linux-gnu"

%struct.FT_StreamRec_ = type { ptr, i64, i64, %union.FT_StreamDesc_, %union.FT_StreamDesc_, ptr, ptr, ptr, ptr, ptr }
%union.FT_StreamDesc_ = type { i64 }
%struct.TT_NameRec_ = type { i16, i16, i16, i16, i16, i64, ptr }

; Function Attrs: nounwind uwtable
define internal ptr @get_win_string(ptr noundef %0, ptr noundef %1, ptr noundef %2, ptr noundef %3, i8 noundef zeroext %4) #0 {
  %6 = alloca ptr, align 8
  %7 = alloca ptr, align 8
  %8 = alloca ptr, align 8
  %9 = alloca ptr, align 8
  %10 = alloca ptr, align 8
  %11 = alloca i8, align 1
  %12 = alloca i32, align 4
  %13 = alloca ptr, align 8
  %14 = alloca ptr, align 8
  %15 = alloca ptr, align 8
  %16 = alloca i32, align 4
  store ptr %0, ptr %7, align 8
  store ptr %1, ptr %8, align 8
  store ptr %2, ptr %9, align 8
  store ptr %3, ptr %10, align 8
  store i8 %4, ptr %11, align 1
  store ptr null, ptr %13, align 8
  %17 = load ptr, ptr %7, align 8
  %18 = load ptr, ptr %9, align 8
  %19 = getelementptr inbounds %struct.TT_NameRec_, ptr %18, i32 0, i32 4
  %20 = load i16, ptr %19, align 8
  %21 = zext i16 %20 to i32
  %22 = sdiv i32 %21, 2
  %23 = add nsw i32 %22, 1
  %24 = sext i32 %23 to i64
  %25 = call ptr @ft_mem_qalloc(ptr noundef %17, i64 noundef %24, ptr noundef %12)
  store ptr %25, ptr %13, align 8
  %26 = load i32, ptr %12, align 4
  %27 = icmp ne i32 %26, 0
  br i1 %27, label %28, label %29

28:                                               ; preds = %5
  store ptr null, ptr %6, align 8
  br label %117

29:                                               ; preds = %5
  %30 = load ptr, ptr %8, align 8
  %31 = load ptr, ptr %9, align 8
  %32 = getelementptr inbounds %struct.TT_NameRec_, ptr %31, i32 0, i32 5
  %33 = load i64, ptr %32, align 8
  %34 = call i32 @FT_Stream_Seek(ptr noundef %30, i64 noundef %33)
  store i32 %34, ptr %12, align 4
  %35 = icmp ne i32 %34, 0
  br i1 %35, label %44, label %36

36:                                               ; preds = %29
  %37 = load ptr, ptr %8, align 8
  %38 = load ptr, ptr %9, align 8
  %39 = getelementptr inbounds %struct.TT_NameRec_, ptr %38, i32 0, i32 4
  %40 = load i16, ptr %39, align 8
  %41 = zext i16 %40 to i64
  %42 = call i32 @FT_Stream_EnterFrame(ptr noundef %37, i64 noundef %41)
  store i32 %42, ptr %12, align 4
  %43 = icmp ne i32 %42, 0
  br i1 %43, label %44, label %45

44:                                               ; preds = %36, %29
  br label %100

45:                                               ; preds = %36
  %46 = load ptr, ptr %13, align 8
  store ptr %46, ptr %14, align 8
  %47 = load ptr, ptr %8, align 8
  %48 = getelementptr inbounds %struct.FT_StreamRec_, ptr %47, i32 0, i32 8
  %49 = load ptr, ptr %48, align 8
  store ptr %49, ptr %15, align 8
  %50 = load ptr, ptr %9, align 8
  %51 = getelementptr inbounds %struct.TT_NameRec_, ptr %50, i32 0, i32 4
  %52 = load i16, ptr %51, align 8
  %53 = zext i16 %52 to i32
  %54 = sdiv i32 %53, 2
  store i32 %54, ptr %16, align 4
  br label %55

55:                                               ; preds = %86, %45
  %56 = load i32, ptr %16, align 4
  %57 = icmp ugt i32 %56, 0
  br i1 %57, label %58, label %91

58:                                               ; preds = %55
  %59 = load ptr, ptr %15, align 8
  %60 = getelementptr inbounds i8, ptr %59, i64 0
  %61 = load i8, ptr %60, align 1
  %62 = sext i8 %61 to i32
  %63 = icmp eq i32 %62, 0
  br i1 %63, label %64, label %78

64:                                               ; preds = %58
  %65 = load ptr, ptr %10, align 8
  %66 = load ptr, ptr %15, align 8
  %67 = getelementptr inbounds i8, ptr %66, i64 1
  %68 = load i8, ptr %67, align 1
  %69 = sext i8 %68 to i32
  %70 = call i32 %65(i32 noundef %69)
  %71 = icmp ne i32 %70, 0
  br i1 %71, label %72, label %78

72:                                               ; preds = %64
  %73 = load ptr, ptr %15, align 8
  %74 = getelementptr inbounds i8, ptr %73, i64 1
  %75 = load i8, ptr %74, align 1
  %76 = load ptr, ptr %14, align 8
  %77 = getelementptr inbounds i8, ptr %76, i32 1
  store ptr %77, ptr %14, align 8
  store i8 %75, ptr %76, align 1
  br label %85

78:                                               ; preds = %64, %58
  %79 = load i8, ptr %11, align 1
  %80 = icmp ne i8 %79, 0
  br i1 %80, label %81, label %84

81:                                               ; preds = %78
  br label %82

82:                                               ; preds = %81
  br label %83

83:                                               ; preds = %82
  br label %84

84:                                               ; preds = %83, %78
  br label %86

85:                                               ; preds = %72
  br label %86

86:                                               ; preds = %85, %84
  %87 = load i32, ptr %16, align 4
  %88 = add i32 %87, -1
  store i32 %88, ptr %16, align 4
  %89 = load ptr, ptr %15, align 8
  %90 = getelementptr inbounds i8, ptr %89, i64 2
  store ptr %90, ptr %15, align 8
  br label %55, !llvm.loop !128

91:                                               ; preds = %55
  %92 = load ptr, ptr %14, align 8
  store i8 0, ptr %92, align 1
  %93 = load ptr, ptr %8, align 8
  call void @FT_Stream_ExitFrame(ptr noundef %93)
  %94 = load ptr, ptr %14, align 8
  %95 = load ptr, ptr %13, align 8
  %96 = icmp ne ptr %94, %95
  br i1 %96, label %97, label %99

97:                                               ; preds = %91
  %98 = load ptr, ptr %13, align 8
  store ptr %98, ptr %6, align 8
  br label %117

99:                                               ; preds = %91
  br label %100

100:                                              ; preds = %99, %44
  br label %101

101:                                              ; preds = %100
  %102 = load ptr, ptr %7, align 8
  %103 = load ptr, ptr %13, align 8
  call void @ft_mem_free(ptr noundef %102, ptr noundef %103)
  store ptr null, ptr %13, align 8
  br label %104

104:                                              ; preds = %101
  %105 = load ptr, ptr %9, align 8
  %106 = getelementptr inbounds %struct.TT_NameRec_, ptr %105, i32 0, i32 4
  store i16 0, ptr %106, align 8
  %107 = load ptr, ptr %9, align 8
  %108 = getelementptr inbounds %struct.TT_NameRec_, ptr %107, i32 0, i32 5
  store i64 0, ptr %108, align 8
  br label %109

109:                                              ; preds = %104
  %110 = load ptr, ptr %7, align 8
  %111 = load ptr, ptr %9, align 8
  %112 = getelementptr inbounds %struct.TT_NameRec_, ptr %111, i32 0, i32 6
  %113 = load ptr, ptr %112, align 8
  call void @ft_mem_free(ptr noundef %110, ptr noundef %113)
  %114 = load ptr, ptr %9, align 8
  %115 = getelementptr inbounds %struct.TT_NameRec_, ptr %114, i32 0, i32 6
  store ptr null, ptr %115, align 8
  br label %116

116:                                              ; preds = %109
  store ptr null, ptr %6, align 8
  br label %117

117:                                              ; preds = %116, %97, %28
  %118 = load ptr, ptr %6, align 8
  ret ptr %118
}