; Function Attrs: nounwind uwtable
define internal fastcc ptr @get_win_string(ptr noundef %0, ptr noundef %1, ptr nocapture noundef %2, ptr nocapture noundef readonly %3) unnamed_addr #0 {
  %5 = alloca i32, align 4
  %6 = getelementptr inbounds i8, ptr %2, i64 8
  %7 = load i16, ptr %6, align 8
  %8 = lshr i16 %7, 1
  %narrow = add nuw i16 %8, 1
  %9 = zext i16 %narrow to i64
  %10 = call ptr @ft_mem_qalloc(ptr noundef %0, i64 noundef %9, ptr noundef nonnull %5) #26
  %11 = load i32, ptr %5, align 4
  %.not = icmp eq i32 %11, 0
  br i1 %.not, label %12, label %42

12:                                               ; preds = %4
  %13 = getelementptr inbounds i8, ptr %2, i64 16
  %14 = load i64, ptr %13, align 8
  %15 = call i32 @FT_Stream_Seek(ptr noundef %1, i64 noundef %14) #26
  store i32 %15, ptr %5, align 4
  %.not34 = icmp eq i32 %15, 0
  br i1 %.not34, label %16, label %39

16:                                               ; preds = %12
  %17 = load i16, ptr %6, align 8
  %18 = zext i16 %17 to i64
  %19 = call i32 @FT_Stream_EnterFrame(ptr noundef %1, i64 noundef %18) #26
  store i32 %19, ptr %5, align 4
  %.not35 = icmp eq i32 %19, 0
  br i1 %.not35, label %20, label %39

20:                                               ; preds = %16
  %21 = load i16, ptr %6, align 8
  %.not3639 = icmp ult i16 %21, 2
  br i1 %.not3639, label %._crit_edge.thread, label %.lr.ph.preheader

._crit_edge.thread:                               ; preds = %20
  store i8 0, ptr %10, align 1
  call void @FT_Stream_ExitFrame(ptr noundef %1) #26
  br label %39

.lr.ph.preheader:                                 ; preds = %20
  %22 = lshr i16 %21, 1
  %23 = zext nneg i16 %22 to i32
  %24 = getelementptr inbounds i8, ptr %1, i64 64
  %25 = load ptr, ptr %24, align 8
  br label %.lr.ph

.lr.ph:                                           ; preds = %.lr.ph.preheader, %36
  %.042 = phi i32 [ %37, %36 ], [ %23, %.lr.ph.preheader ]
  %.03041 = phi ptr [ %38, %36 ], [ %25, %.lr.ph.preheader ]
  %.03140 = phi ptr [ %.1, %36 ], [ %10, %.lr.ph.preheader ]
  %26 = load i8, ptr %.03041, align 1
  %27 = icmp eq i8 %26, 0
  br i1 %27, label %28, label %36

28:                                               ; preds = %.lr.ph
  %29 = getelementptr inbounds i8, ptr %.03041, i64 1
  %30 = load i8, ptr %29, align 1
  %31 = sext i8 %30 to i32
  %32 = call i32 %3(i32 noundef %31) #26, !callees !149
  %.not38 = icmp eq i32 %32, 0
  br i1 %.not38, label %36, label %33

33:                                               ; preds = %28
  %34 = load i8, ptr %29, align 1
  %35 = getelementptr inbounds i8, ptr %.03140, i64 1
  store i8 %34, ptr %.03140, align 1
  br label %36

36:                                               ; preds = %.lr.ph, %28, %33
  %.1 = phi ptr [ %35, %33 ], [ %.03140, %28 ], [ %.03140, %.lr.ph ]
  %37 = add nsw i32 %.042, -1
  %38 = getelementptr inbounds i8, ptr %.03041, i64 2
  %.not36 = icmp eq i32 %37, 0
  br i1 %.not36, label %._crit_edge, label %.lr.ph, !llvm.loop !150

._crit_edge:                                      ; preds = %36
  store i8 0, ptr %.1, align 1
  call void @FT_Stream_ExitFrame(ptr noundef %1) #26
  %.not37 = icmp eq ptr %.1, %10
  br i1 %.not37, label %39, label %42

39:                                               ; preds = %._crit_edge.thread, %16, %12, %._crit_edge
  call void @ft_mem_free(ptr noundef %0, ptr noundef %10) #26
  store i16 0, ptr %6, align 8
  store i64 0, ptr %13, align 8
  %40 = getelementptr inbounds i8, ptr %2, i64 24
  %41 = load ptr, ptr %40, align 8
  call void @ft_mem_free(ptr noundef %0, ptr noundef %41) #26
  store ptr null, ptr %40, align 8
  br label %42

42:                                               ; preds = %._crit_edge, %4, %39
  %.032 = phi ptr [ null, %39 ], [ null, %4 ], [ %10, %._crit_edge ]
  ret ptr %.032
}